; Function Attrs: mustprogress uwtable
define dso_local noundef ptr @stbi_load_from_memory(ptr noundef %0, i32 noundef %1, ptr noundef captures(none) %2, ptr noundef captures(none) %3, ptr noundef %4, i32 noundef %5) local_unnamed_addr #5 {
  %7 = alloca %struct.stbi__context, align 8
  call void @llvm.lifetime.start.p0(i64 224, ptr nonnull %7) #40
  %8 = getelementptr inbounds nuw i8, ptr %7, i64 16
  store ptr null, ptr %8, align 8, !tbaa !21
  %9 = getelementptr inbounds nuw i8, ptr %7, i64 48
  store i32 0, ptr %9, align 8, !tbaa !17
  %10 = getelementptr inbounds nuw i8, ptr %7, i64 184
  store i32 0, ptr %10, align 8, !tbaa !18
  %11 = getelementptr inbounds nuw i8, ptr %7, i64 208
  store ptr %0, ptr %11, align 8, !tbaa !19
  %12 = getelementptr inbounds nuw i8, ptr %7, i64 192
  store ptr %0, ptr %12, align 8, !tbaa !20
  %13 = sext i32 %1 to i64
  %14 = getelementptr inbounds i8, ptr %0, i64 %13
  %15 = getelementptr inbounds nuw i8, ptr %7, i64 216
  store ptr %14, ptr %15, align 8, !tbaa !24
  %16 = getelementptr inbounds nuw i8, ptr %7, i64 200
  store ptr %14, ptr %16, align 8, !tbaa !23
  %17 = call fastcc noundef ptr @_ZL31stbi__load_and_postprocess_8bitP13stbi__contextPiS1_S1_i(ptr noundef %7, ptr noundef %2, ptr noundef %3, ptr noundef %4, i32 noundef %5)
  call void @llvm.lifetime.end.p0(i64 224, ptr nonnull %7) #40
  ret ptr %17
}